; Function Attrs: mustprogress uwtable
define internal noundef i32 @_ZN11flatbuffers12_GLOBAL__N_117DartCodeGenerator12GenerateCodeERKNS_6ParserERKNSt7__cxx1112basic_stringIcSt11char_traitsIcESaIcEEESC_(ptr nocapture nonnull readnone align 8 %this, ptr noundef nonnull align 8 dereferenceable(1784) %parser, ptr noundef nonnull align 8 dereferenceable(32) %path, ptr noundef nonnull align 8 dereferenceable(32) %filename) unnamed_addr #1 align 2 personality ptr @__gxx_personality_v0 {
entry:
  %generator.i = alloca %"class.flatbuffers::dart::DartGenerator", align 8
  call void @llvm.lifetime.start.p0(i64 520, ptr nonnull %generator.i)
  call void @_ZN11flatbuffers4dart13DartGeneratorC2ERKNS_6ParserERKNSt7__cxx1112basic_stringIcSt11char_traitsIcESaIcEEESC_(ptr noundef nonnull align 8 dereferenceable(520) %generator.i, ptr noundef nonnull align 8 dereferenceable(1784) %parser, ptr noundef nonnull align 8 dereferenceable(32) %path, ptr noundef nonnull align 8 dereferenceable(32) %filename)
  %call.i = invoke noundef zeroext i1 @_ZN11flatbuffers4dart13DartGenerator8generateEv(ptr noundef nonnull align 8 dereferenceable(520) %generator.i)
          to label %_ZN11flatbuffersL12GenerateDartERKNS_6ParserERKNSt7__cxx1112basic_stringIcSt11char_traitsIcESaIcEEESA_.exit unwind label %lpad.i

lpad.i:                                           ; preds = %entry
  %0 = landingpad { ptr, i32 }
          cleanup
  call void @_ZN11flatbuffers4dart13DartGeneratorD2Ev(ptr noundef nonnull align 8 dereferenceable(520) %generator.i) #21
  resume { ptr, i32 } %0

_ZN11flatbuffersL12GenerateDartERKNS_6ParserERKNSt7__cxx1112basic_stringIcSt11char_traitsIcESaIcEEESA_.exit: ; preds = %entry
  store ptr getelementptr inbounds ({ [6 x ptr] }, ptr @_ZTVN11flatbuffers4dart13DartGeneratorE, i64 0, i32 0, i64 2), ptr %generator.i, align 8
  %namer_.i.i = getelementptr inbounds i8, ptr %generator.i, i64 128
  call void @_ZN11flatbuffers5NamerD2Ev(ptr noundef nonnull align 8 dereferenceable(392) %namer_.i.i) #21
  store ptr getelementptr inbounds ({ [6 x ptr] }, ptr @_ZTVN11flatbuffers13BaseGeneratorE, i64 0, i32 0, i64 2), ptr %generator.i, align 8
  %default_extension_.i.i.i = getelementptr inbounds i8, ptr %generator.i, i64 96
  call void @_ZNSt7__cxx1112basic_stringIcSt11char_traitsIcESaIcEED1Ev(ptr noundef nonnull align 8 dereferenceable(32) %default_extension_.i.i.i) #21
  %qualifying_separator_.i.i.i = getelementptr inbounds i8, ptr %generator.i, i64 64
  call void @_ZNSt7__cxx1112basic_stringIcSt11char_traitsIcESaIcEED1Ev(ptr noundef nonnull align 8 dereferenceable(32) %qualifying_separator_.i.i.i) #21
  %qualifying_start_.i.i.i = getelementptr inbounds i8, ptr %generator.i, i64 32
  call void @_ZNSt7__cxx1112basic_stringIcSt11char_traitsIcESaIcEED1Ev(ptr noundef nonnull align 8 dereferenceable(32) %qualifying_start_.i.i.i) #21
  call void @llvm.lifetime.end.p0(i64 520, ptr nonnull %generator.i)
  %not.call.i = xor i1 %call.i, true
  %. = zext i1 %not.call.i to i32
  ret i32 %.
}